target datalayout = "e-m:e-p270:32:32-p271:32:32-p272:64:64-i64:64-i128:128-f80:128-n8:16:32:64-S128"
target triple = "x86_64-pc-linux-gnu"

%struct.slurmdb_qos_rec_t = type { i64, ptr, i32, i32, i32, i32, i32, i32, ptr, ptr, ptr, ptr, ptr, ptr, i32, double, i32, i32, i32, i32, i32, i32, ptr, ptr, ptr, ptr, ptr, ptr, ptr, ptr, ptr, ptr, ptr, ptr, ptr, ptr, i32, i32, ptr, ptr, ptr, ptr, ptr, i16, i32, i32, ptr, ptr, double, double }
%struct.slurmdb_used_limits_t = type { i32, ptr, i32, i32, ptr, ptr, ptr, ptr, i32 }

@one_liner = external global i32, align 4
@.str.9 = private unnamed_addr constant [2 x i8] c" \00", align 1
@.str.34 = private unnamed_addr constant [3 x i8] c"%s\00", align 1
@.str.71 = private unnamed_addr constant [10 x i8] c"\0A        \00", align 1
@.str.77 = private unnamed_addr constant [2 x i8] c"N\00", align 1
@.str.81 = private unnamed_addr constant [8 x i8] c"\0A      \00", align 1
@.str.82 = private unnamed_addr constant [3 x i8] c"={\00", align 1
@.str.84 = private unnamed_addr constant [3 x i8] c"%u\00", align 1
@.str.85 = private unnamed_addr constant [6 x i8] c"(%u) \00", align 1
@.str.88 = private unnamed_addr constant [7 x i8] c"(%u)%s\00", align 1
@.str.91 = private unnamed_addr constant [2 x i8] c"}\00", align 1
@.str.92 = private unnamed_addr constant [11 x i8] c"%s%s(%d)%s\00", align 1
@.str.93 = private unnamed_addr constant [11 x i8] c"MaxJobsPU=\00", align 1
@.str.94 = private unnamed_addr constant [17 x i8] c"MaxJobsAccruePU=\00", align 1
@.str.95 = private unnamed_addr constant [17 x i8] c"MaxSubmitJobsPU=\00", align 1
@.str.96 = private unnamed_addr constant [10 x i8] c"MaxTRESPU\00", align 1
@.str.97 = private unnamed_addr constant [17 x i8] c"MaxTRESRunMinsPU\00", align 1

; Function Attrs: nounwind uwtable
define internal i32 @_print_used_user_limit(ptr noundef %0, ptr noundef %1) #0 {
  %3 = alloca ptr, align 8
  %4 = alloca ptr, align 8
  %5 = alloca ptr, align 8
  %6 = alloca ptr, align 8
  store ptr %0, ptr %3, align 8
  store ptr %1, ptr %4, align 8
  call void @llvm.lifetime.start.p0(i64 8, ptr %5) #7
  %7 = load i32, ptr @one_liner, align 4
  %8 = icmp ne i32 %7, 0
  %9 = select i1 %8, ptr @.str.9, ptr @.str.71
  store ptr %9, ptr %5, align 8
  call void @llvm.lifetime.start.p0(i64 8, ptr %6) #7
  %10 = load ptr, ptr %3, align 8
  %11 = getelementptr inbounds nuw %struct.slurmdb_used_limits_t, ptr %10, i32 0, i32 8
  %12 = load i32, ptr %11, align 8
  %13 = call ptr @uid_to_string(i32 noundef %12)
  store ptr %13, ptr %6, align 8
  %14 = load i32, ptr @one_liner, align 4
  %15 = icmp ne i32 %14, 0
  %16 = select i1 %15, ptr @.str.9, ptr @.str.81
  %17 = load ptr, ptr %6, align 8
  %18 = load ptr, ptr %3, align 8
  %19 = getelementptr inbounds nuw %struct.slurmdb_used_limits_t, ptr %18, i32 0, i32 8
  %20 = load i32, ptr %19, align 8
  %21 = load i32, ptr @one_liner, align 4
  %22 = icmp ne i32 %21, 0
  br i1 %22, label %23, label %24

23:                                               ; preds = %2
  br label %26

24:                                               ; preds = %2
  %25 = load ptr, ptr %5, align 8
  br label %26

26:                                               ; preds = %24, %23
  %27 = phi ptr [ @.str.82, %23 ], [ %25, %24 ]
  %28 = call i32 (ptr, ...) @printf(ptr noundef @.str.92, ptr noundef %16, ptr noundef %17, i32 noundef %20, ptr noundef %27)
  call void @slurm_xfree(ptr noundef %6)
  %29 = call i32 (ptr, ...) @printf(ptr noundef @.str.93)
  %30 = load ptr, ptr %4, align 8
  %31 = getelementptr inbounds nuw %struct.slurmdb_qos_rec_t, ptr %30, i32 0, i32 17
  %32 = load i32, ptr %31, align 4
  %33 = icmp ne i32 %32, -1
  br i1 %33, label %34, label %39

34:                                               ; preds = %26
  %35 = load ptr, ptr %4, align 8
  %36 = getelementptr inbounds nuw %struct.slurmdb_qos_rec_t, ptr %35, i32 0, i32 17
  %37 = load i32, ptr %36, align 4
  %38 = call i32 (ptr, ...) @printf(ptr noundef @.str.84, i32 noundef %37)
  br label %41

39:                                               ; preds = %26
  %40 = call i32 (ptr, ...) @printf(ptr noundef @.str.77)
  br label %41

41:                                               ; preds = %39, %34
  %42 = load ptr, ptr %3, align 8
  %43 = getelementptr inbounds nuw %struct.slurmdb_used_limits_t, ptr %42, i32 0, i32 2
  %44 = load i32, ptr %43, align 8
  %45 = call i32 (ptr, ...) @printf(ptr noundef @.str.85, i32 noundef %44)
  %46 = call i32 (ptr, ...) @printf(ptr noundef @.str.94)
  %47 = load ptr, ptr %4, align 8
  %48 = getelementptr inbounds nuw %struct.slurmdb_qos_rec_t, ptr %47, i32 0, i32 19
  %49 = load i32, ptr %48, align 4
  %50 = icmp ne i32 %49, -1
  br i1 %50, label %51, label %56

51:                                               ; preds = %41
  %52 = load ptr, ptr %4, align 8
  %53 = getelementptr inbounds nuw %struct.slurmdb_qos_rec_t, ptr %52, i32 0, i32 19
  %54 = load i32, ptr %53, align 4
  %55 = call i32 (ptr, ...) @printf(ptr noundef @.str.84, i32 noundef %54)
  br label %58

56:                                               ; preds = %41
  %57 = call i32 (ptr, ...) @printf(ptr noundef @.str.77)
  br label %58

58:                                               ; preds = %56, %51
  %59 = load ptr, ptr %3, align 8
  %60 = getelementptr inbounds nuw %struct.slurmdb_used_limits_t, ptr %59, i32 0, i32 0
  %61 = load i32, ptr %60, align 8
  %62 = call i32 (ptr, ...) @printf(ptr noundef @.str.85, i32 noundef %61)
  %63 = call i32 (ptr, ...) @printf(ptr noundef @.str.95)
  %64 = load ptr, ptr %4, align 8
  %65 = getelementptr inbounds nuw %struct.slurmdb_qos_rec_t, ptr %64, i32 0, i32 21
  %66 = load i32, ptr %65, align 4
  %67 = icmp ne i32 %66, -1
  br i1 %67, label %68, label %73

68:                                               ; preds = %58
  %69 = load ptr, ptr %4, align 8
  %70 = getelementptr inbounds nuw %struct.slurmdb_qos_rec_t, ptr %69, i32 0, i32 21
  %71 = load i32, ptr %70, align 4
  %72 = call i32 (ptr, ...) @printf(ptr noundef @.str.84, i32 noundef %71)
  br label %75

73:                                               ; preds = %58
  %74 = call i32 (ptr, ...) @printf(ptr noundef @.str.77)
  br label %75

75:                                               ; preds = %73, %68
  %76 = load ptr, ptr %3, align 8
  %77 = getelementptr inbounds nuw %struct.slurmdb_used_limits_t, ptr %76, i32 0, i32 3
  %78 = load i32, ptr %77, align 4
  %79 = load ptr, ptr %5, align 8
  %80 = call i32 (ptr, ...) @printf(ptr noundef @.str.88, i32 noundef %78, ptr noundef %79)
  %81 = load ptr, ptr %4, align 8
  %82 = getelementptr inbounds nuw %struct.slurmdb_qos_rec_t, ptr %81, i32 0, i32 31
  %83 = load ptr, ptr %82, align 8
  %84 = load ptr, ptr %3, align 8
  %85 = getelementptr inbounds nuw %struct.slurmdb_used_limits_t, ptr %84, i32 0, i32 4
  %86 = load ptr, ptr %85, align 8
  call void @_print_tres_line(ptr noundef @.str.96, ptr noundef %83, ptr noundef %86, i64 noundef 0)
  %87 = load ptr, ptr %5, align 8
  %88 = call i32 (ptr, ...) @printf(ptr noundef @.str.34, ptr noundef %87)
  %89 = load ptr, ptr %4, align 8
  %90 = getelementptr inbounds nuw %struct.slurmdb_qos_rec_t, ptr %89, i32 0, i32 35
  %91 = load ptr, ptr %90, align 8
  %92 = load ptr, ptr %3, align 8
  %93 = getelementptr inbounds nuw %struct.slurmdb_used_limits_t, ptr %92, i32 0, i32 5
  %94 = load ptr, ptr %93, align 8
  call void @_print_tres_line(ptr noundef @.str.97, ptr noundef %91, ptr noundef %94, i64 noundef 60)
  %95 = load i32, ptr @one_liner, align 4
  %96 = icmp ne i32 %95, 0
  br i1 %96, label %97, label %99

97:                                               ; preds = %75
  %98 = call i32 (ptr, ...) @printf(ptr noundef @.str.91)
  br label %99

99:                                               ; preds = %97, %75
  call void @llvm.lifetime.end.p0(i64 8, ptr %6) #7
  call void @llvm.lifetime.end.p0(i64 8, ptr %5) #7
  ret i32 0
}