; Function Attrs: nounwind uwtable
define internal noundef i32 @_print_used_user_limit(ptr noundef readonly captures(none) %0, ptr noundef readonly captures(none) %1) #0 {
  %3 = alloca ptr, align 8
  %4 = load i32, ptr @one_liner, align 4
  %.not = icmp eq i32 %4, 0
  %5 = select i1 %.not, ptr @.str.71, ptr @.str.9
  call void @llvm.lifetime.start.p0(i64 8, ptr nonnull %3) #9
  %6 = getelementptr inbounds nuw i8, ptr %0, i64 56
  %7 = load i32, ptr %6, align 8
  %8 = tail call ptr @uid_to_string(i32 noundef %7) #9
  store ptr %8, ptr %3, align 8
  %9 = load i32, ptr @one_liner, align 4
  %.not20 = icmp eq i32 %9, 0
  %10 = select i1 %.not20, ptr @.str.81, ptr @.str.9
  %11 = load i32, ptr %6, align 8
  %12 = select i1 %.not20, ptr %5, ptr @.str.82
  %13 = tail call i32 (ptr, ...) @printf(ptr noundef nonnull dereferenceable(1) @.str.92, ptr noundef nonnull %10, ptr noundef %8, i32 noundef %11, ptr noundef nonnull %12)
  call void @slurm_xfree(ptr noundef nonnull %3) #9
  %14 = call i32 (ptr, ...) @printf(ptr noundef nonnull dereferenceable(1) @.str.93)
  %15 = getelementptr inbounds nuw i8, ptr %1, i64 108
  %16 = load i32, ptr %15, align 4
  %.not21 = icmp eq i32 %16, -1
  br i1 %.not21, label %19, label %17

17:                                               ; preds = %2
  %18 = call i32 (ptr, ...) @printf(ptr noundef nonnull dereferenceable(1) @.str.84, i32 noundef %16)
  br label %20

19:                                               ; preds = %2
  %putchar = call i32 @putchar(i32 78)
  br label %20

20:                                               ; preds = %19, %17
  %21 = getelementptr inbounds nuw i8, ptr %0, i64 16
  %22 = load i32, ptr %21, align 8
  %23 = call i32 (ptr, ...) @printf(ptr noundef nonnull dereferenceable(1) @.str.85, i32 noundef %22)
  %24 = call i32 (ptr, ...) @printf(ptr noundef nonnull dereferenceable(1) @.str.94)
  %25 = getelementptr inbounds nuw i8, ptr %1, i64 116
  %26 = load i32, ptr %25, align 4
  %.not22 = icmp eq i32 %26, -1
  br i1 %.not22, label %29, label %27

27:                                               ; preds = %20
  %28 = call i32 (ptr, ...) @printf(ptr noundef nonnull dereferenceable(1) @.str.84, i32 noundef %26)
  br label %30

29:                                               ; preds = %20
  %putchar23 = call i32 @putchar(i32 78)
  br label %30

30:                                               ; preds = %29, %27
  %31 = load i32, ptr %0, align 8
  %32 = call i32 (ptr, ...) @printf(ptr noundef nonnull dereferenceable(1) @.str.85, i32 noundef %31)
  %33 = call i32 (ptr, ...) @printf(ptr noundef nonnull dereferenceable(1) @.str.95)
  %34 = getelementptr inbounds nuw i8, ptr %1, i64 124
  %35 = load i32, ptr %34, align 4
  %.not24 = icmp eq i32 %35, -1
  br i1 %.not24, label %38, label %36

36:                                               ; preds = %30
  %37 = call i32 (ptr, ...) @printf(ptr noundef nonnull dereferenceable(1) @.str.84, i32 noundef %35)
  br label %39

38:                                               ; preds = %30
  %putchar25 = call i32 @putchar(i32 78)
  br label %39

39:                                               ; preds = %38, %36
  %40 = getelementptr inbounds nuw i8, ptr %0, i64 20
  %41 = load i32, ptr %40, align 4
  %42 = call i32 (ptr, ...) @printf(ptr noundef nonnull dereferenceable(1) @.str.88, i32 noundef %41, ptr noundef nonnull %5)
  %43 = getelementptr inbounds nuw i8, ptr %1, i64 200
  %44 = load ptr, ptr %43, align 8
  %45 = getelementptr inbounds nuw i8, ptr %0, i64 24
  %46 = load ptr, ptr %45, align 8
  call fastcc void @_print_tres_line(ptr noundef nonnull @.str.96, ptr noundef %44, ptr noundef %46, i64 noundef 0)
  %47 = call i32 (ptr, ...) @printf(ptr noundef nonnull dereferenceable(1) @.str.34, ptr noundef nonnull %5)
  %48 = getelementptr inbounds nuw i8, ptr %1, i64 232
  %49 = load ptr, ptr %48, align 8
  %50 = getelementptr inbounds nuw i8, ptr %0, i64 32
  %51 = load ptr, ptr %50, align 8
  call fastcc void @_print_tres_line(ptr noundef nonnull @.str.97, ptr noundef %49, ptr noundef %51, i64 noundef 60)
  %52 = load i32, ptr @one_liner, align 4
  %.not26 = icmp eq i32 %52, 0
  br i1 %.not26, label %54, label %53

53:                                               ; preds = %39
  %putchar27 = call i32 @putchar(i32 125)
  br label %54

54:                                               ; preds = %53, %39
  call void @llvm.lifetime.end.p0(i64 8, ptr nonnull %3) #9
  ret i32 0
}